(dp1
Vsaatkins@swidlaw.com
p2
I646
sVsusan.mara@enron.com
p3
I1
sVjim.wiltfong@enron.com
p4
I1062
sVlinda.noske@enron.com
p5
I3
sVdan.wall@lw.com
p6
I1220
sVjprussell@duke-energy.com
p7
I4
sVjackie.gentle@enron.com
p8
I5
sVscott.tholan@enron.com
p9
I1063
sVgary.bryan@enron.com
p10
I7
sVken.rice@enron.com
p11
I9
sVmark.koenig@enron.com
p12
I61
sVjose.bestard@enron.com
p13
I65
sVlisa.jacobson@enron.com
p14
I444
sVkleinmanj@dsmo.com
p15
I15
sVcarolyn.cooney@enron.com
p16
I16
sVlexi.elliott@enron.com
p17
I17
sVgerald.nemec@enron.com
p18
I18
sVnapedersen@jonesday.com
p19
I843
sVrpelote@energy.twc.com
p20
I20
sVchealey@luce.com
p21
I21
sVe-mail <.joseph@enron.com>
p22
I23
sVjames.wood@enron.com
p23
I24
sVhillh@stanford.edu
p24
I25
sVjames.l.bouillion@enron.com
p25
I26
sVlewis@mailman.enron.com
p26
I28
sVcathy.corbin@enron.com
p27
I29
sVrllamkin@seiworldwide.com
p28
I30
sVjeffrey.shankman@enron.com
p29
I31
sVpeter.del.vecchio@enron.com
p30
I32
sVmike.weaver@lw.com
p31
I33
sVrsteiner@luce.com
p32
I34
sVrosario.boling@enron.com
p33
I36
sVtracy.ngo@enron.com
p34
I38
sVjennifer.hein@neg.pge.com
p35
I39
sVrlichtenstein@marathon-com.com
p36
I41
sVrobert.hemstock@enron.com
p37
I42
sVsally.keepers@enron.com
p38
I43
sVrichard.leibert@enron.com
p39
I44
sVain@worldnet.att.net
p40
I1067
sVjeanie.slone@enron.com
p41
I45
sVnclark@velaw.com
p42
I46
sVjkradin@marathon-com.com
p43
I47
sVdavid.delainey@enron.com
p44
I48
sValan.comnes@enron.com
p45
I49
sVl..nicolay@enron.com
p46
I50
sVmorris.brassfield@enron.com
p47
I51
sVgreg.cordell@enron.com
p48
I52
sVjames.derrick@enron.com
p49
I53
sVm..presto@enron.com
p50
I54
sVrita.hennessy@enron.com
p51
I55
sVsteve.walton@enron.com
p52
I57
sVsmutny@iepa.com
p53
I58
sVgautam.gupta@enron.com
p54
I59
sVmichelle.blaine@enron.com
p55
I60
sVmartin.wenzel@enron.com
p56
I62
sVpaul.simons@enron.com
p57
I63
sVsean.black@enron.com
p58
I64
sVbryan.seyfried@enron.com
p59
I66
sVfderosa@sanfrancisco.usgen.com
p60
I67
sVdamon.harvey@enron.com
p61
I68
sVgary.foster@enron.com
p62
I69
sVvincek@cs.stanford.edu
p63
I70
sVtmcmorrow@manatt.com
p64
I867
sVstuart.zisman@enron.com
p65
I73
sVvanessa.groscrand@enron.com
p66
I74
sVaspring@epsa.org
p67
I75
sVamy.kim@enron.com
p68
I76
sVthor.lien@enron.com
p69
I77
sVkevin.mcgowan@enron.com
p70
I78
sVsandra.lighthill@enron.com
p71
I79
sVmarsha.suggs@enron.com
p72
I868
sVcfi1@tca-us.com
p73
I81
sVmarket_participant_hj1@calpx.com
p74
I82
sVmatt.smith@enron.com
p75
I83
sVcliff.baxter@enron.com
p76
I84
sVkeith.holst@enron.com
p77
I85
sVemaddox@seawestwindpower.com
p78
I86
sVjames.prentice@enron.com
p79
I1055
sVwfhall2@duke-energy.com
p80
I88
sVhaedicke@mailman.enron.com
p81
I237
sVe-mail <'.'ron@enron.com>
p82
I90
sVpannesley@riskwaters.com
p83
I91
sVhoward.fromer@enron.com
p84
I92
sVjgreco@caithnessenergy.com
p85
I866
sVwilliam.smith@enron.com
p86
I94
sVjennifer.stevenson@us.arthurandersen.com
p87
I95
sVjohn.lavorato@enron.com
p88
I1235
sVpeter.benzian@lw.com
p89
I1076
sVexenron@hotmail.com
p90
I97
sVheather.brown@williams.com
p91
I98
sVjohn.shelk@enron.com
p92
I99
sVkevin.hannon@enron.com
p93
I100
sVraymond.bowen@enron.com
p94
I102
sVmarket_participant_eg2@calpx.com
p95
I481
sVhap.boyd@enron.com
p96
I1053
sVjeffrey.sherrick@enron.com
p97
I105
sVebe4476b-2d94882a-86256a14-75ff3b@enron.com
p98
I106
sVehildebrandt@caiso.com
p99
I108
sVrob.walls@enron.com
p100
I1078
sVjess.hewitt@enron.com
p101
I110
sVtimothy.detmering@enron.com
p102
I111
sVmiyung.buster@enron.com
p103
I113
sVdan.hyvl@enron.com
p104
I114
sVsgreenleaf@caiso.com
p105
I115
sVrwilson@stanford.edu
p106
I116
sVrichard.b.sanders@enron.com
p107
I117
sVcurt.hatton@gen.pge.com
p108
I118
sVsarah.palmer@enron.com
p109
I119
sVhemery@firstunion1.com
p110
I120
sVdarron.giron@enron.com
p111
I121
sVrubena.buerger@enron.com
p112
I122
sVdominic.dimare@calchamber.com
p113
I731
sVmariella.mahan@enron.com
p114
I123
sVfernley.dyson@enron.com
p115
I124
sVrebecca.cantrell@enron.com
p116
I125
sVsyamane@marathon-com.com
p117
I126
sVsteven.harris@enron.com
p118
I943
sVchristopher.calger@enron.com
p119
I127
sVlfried@uclink.berkeley.edu
p120
I128
sVdlugar@quinngillespie.com
p121
I129
sVcarin.nersesian@enron.com
p122
I130
sVllane@graycary.com
p123
I131
sVchristine.stokes@enron.com
p124
I132
sVncrist@prebon.com
p125
I744
sVjstewart@cmta.net
p126
I134
sVjohn.valdes@enron.com
p127
I135
sVsteven.alexander@us.artemisintl.com
p128
I136
sVroger.pelote@williams.com
p129
I137
sVisenberg@hmot.com
p130
I138
sVskean@enron.com
p131
I139
sVmkahl@ka-pow.com
p132
I140
sVvince.kaminski@enron.com
p133
I680
sVjames.keller@enron.com
p134
I141
sVshanna.funkhouser@enron.com
p135
I1080
sVjinbaek@ieor.berkeley.edu
p136
I143
sVjohn.neslage@enron.com
p137
I1096
sVmnacht@socrates.berkeley.edu
p138
I144
sVdebra.davidson@enron.com
p139
I375
sVgrant.masson@enron.com
p140
I147
sVcmculbe@us.ibm.com
p141
I148
sVmmaxwell@bakerbotts.com
p142
I1107
sVkathryn.sheppard@enron.com
p143
I149
sVjche@dynegy.com
p144
I150
sVbetokuhn@msn.com
p145
I151
sVbg8862@aol.com
p146
I152
sVdavid.guillaume@enron.com
p147
I153
sVdrothrock@camfg.com
p148
I154
sVe-mail <.dan@enron.com>
p149
I155
sVspringerj@dsmo.com
p150
I449
sVjohn.gammie@williams.com
p151
I156
sVjohn.g.larrea@williams.com
p152
I672
sVterri.greenlee@enron.com
p153
I158
sVludkam@aol.com
p154
I159
sVcharles.cheek@enron.com
p155
I160
sVmolly.magee@enron.com
p156
I161
sVbarbara.gray@enron.com
p157
I162
sVmaureen.mcvicker@enron.com
p158
I1085
sVandybrwn@earthlink.net
p159
I165
sVpaula_soos@ogden-energy.com
p160
I166
sVm..landwehr@enron.com
p161
I671
sVbkatz@chapinlaw.com
p162
I168
sVkay.threet@enron.com
p163
I169
sVstephen.swain@enron.com
p164
I170
sVgordon.savage@enron.com
p165
I171
sVrbutts@enron.com
p166
I172
sVjleslie@luce.com
p167
I173
sVdavid.nutt@enron.com
p168
I388
sVsue.neville@enron.com
p169
I732
sVstacey.white@enron.com
p170
I583
sVmcyrus@cinergy.com
p171
I177
sVbandrews@quinngillespie.com
p172
I673
sVbillw@calpine.com
p173
I1088
sVfabricio.soares@enron.com
p174
I674
sValex.parsons@enron.com
p175
I1089
sVsandeep.kohli@enron.com
p176
I183
sVs..muller@enron.com
p177
I185
sVd..steffes@enron.com
p178
I186
sVsscsus@aol.com
p179
I187
sVlegal <.taylor@enron.com>
p180
I188
sVelizabeth.brown@enron.com
p181
I189
sVjweisgall@aol.com
p182
I190
sVlizzette.palmer@enron.com
p183
I192
sVanne.labbe@enron.com
p184
I193
sVafishman@bracepatt.com
p185
I194
sVjoe.quenet@enron.com
p186
I195
sVellen@tca-us.com
p187
I1091
sVnicholas.o'day@enron.com
p188
I198
sVkmccrea@sablaw.com
p189
I199
sVrbw@mrwassoc.com
p190
I200
sVthoulihan@mdbe.com
p191
I474
sVjohn.wack@enron.com
p192
I101
sVeric.melvin@enron.com
p193
I203
sVrobert.frank@enron.com
p194
I678
sVchris.long@enron.com
p195
I205
sVerika.dupre@enron.com
p196
I475
sVkirk.forrest@williams.com
p197
I207
sVsgerber@caiso.com
p198
I208
sVtanya.leslie@enron.com
p199
I210
sVshona.wilson@enron.com
p200
I211
sVmarket_participant_ab1@calpx.com
p201
I213
sVrobert.h.george@enron.com
p202
I71
sVmary.clark@enron.com
p203
I215
sVneal.gerstandt@enron.com
p204
I970
sVtony_richardson@la.kirkland.com
p205
I220
sVsteven.kean@enron.com
p206
I1095
sVceleste.roberts@enron.com
p207
I222
sVsdl@calwind.com
p208
I223
sVtk.lohman@enron.com
p209
I157
sVdnelsen@msn.com
p210
I225
sVjohn.lamb@enron.com
p211
I175
sVbenjamin.rogers@enron.com
p212
I228
sVjustin.williams@linklaters.com
p213
I229
sVandrea.yowman@enron.com
p214
I230
sVkathleen.magruder@enron.com
p215
I231
sVreyna.cabrera@enron.com
p216
I232
sVrescalante@riobravo-gm.com
p217
I1012
sVjeff.dasovich@enron.com
p218
I233
sVrobert.johnston@enron.com
p219
I478
sVlkaimer@caiso.com
p220
I234
sVjsteffe@enron.com
p221
I235
sVrcoleman@duke-energy.com
p222
I827
sVgphillip@enron.com
p223
I89
sVfrayblay@aol.com
p224
I238
sVangela.wilson@enron.com
p225
I239
sVkfickett@usgen.com
p226
I240
sVkhoffman@caithnessenergy.com
p227
I682
sV40enron@enron.com
p228
I479
sVed.tomeo@uaecorp.com
p229
I243
sVrboyd@enron.com
p230
I244
sVrjhickok@duke-energy.com
p231
I1176
sVmorgan.gottsponer@enron.com
p232
I245
sVdparque@ect.enron.com
p233
I246
sVcody.carter@williams.com
p234
I1074
sVmelinda.pharms@enron.com
p235
I247
sVd.hall@enron.com
p236
I248
sVzimin.lu@enron.com
p237
I249
sValex.huang@enron.com
p238
I250
sVkellyl@enxco.com
p239
I251
sVrabernathy@caiso.com
p240
I252
sVsusan.scott@enron.com
p241
I254
sVshelia.benke@enron.com
p242
I255
sVgail.brownfield@enron.com
p243
I256
sVbernadette.hawkins@enron.com
p244
I257
sVdirk.vanulden@enron.com
p245
I258
sVkean@enron.com
p246
I259
sVnemec@mailman.enron.com
p247
I260
sVjohn.hardy@enron.com
p248
I261
sVbreasoner@gibbs-bruns.com
p249
I262
sVgreg.piper@enron.com
p250
I908
sVmark.palmer@enron.com
p251
I265
sVperlism@dsmo.com
p252
I266
sVjohn.griffith@enron.com
p253
I1105
sVrichard.zdunkewicz@enron.com
p254
I269
sVrobert.stalford@enron.com
p255
I270
sVlynn.mcconnell@williams.com
p256
I271
sVmnobili@cal-lobby.com
p257
I272
sVdkk@eslawfirm.com
p258
I273
sVroberta.staehlin@enron.com
p259
I723
sVmary.hain@enron.com
p260
I274
sVtallen@buckham.com
p261
I275
sVrbaird@velaw.com
p262
I276
sVelliottsa@earthlink.net
p263
I277
sVlisa_g_urick@calpx.com
p264
I1264
sVedward.sacks@enron.com
p265
I278
sVkenneth.parkhill@enron.com
p266
I279
sVtasha.lair@enron.com
p267
I280
sVginger.dernehl@enron.com
p268
I281
sVkmagruder@newpower.com
p269
I282
sVhgovenar@govadv.com
p270
I284
sVmichelle.lokay@enron.com
p271
I286
sVmichael.terraso@enron.com
p272
I484
sVkadzikp@dsmo.com
p273
I289
sVjanine.migden@enron.com
p274
I290
sVroppe@scmv.com
p275
I291
sVjeff.brown@enron.com
p276
I1022
sVwilliam.bradford@enron.com
p277
I292
sVmichael.etringer@enron.com
p278
I293
sVmarket_participant_mn1@calpx.com
p279
I296
sVbinky.davidson@enron.com
p280
I1205
sVjames_ransom@la.kirkland.com
p281
I298
sVchristian.yoder@enron.com
p282
I299
sVwjoor@velaw.com
p283
I300
sVncregan@mdbe.com
p284
I301
sVken.gustafson@enron.com
p285
I302
sVfrank.smith@enron.com
p286
I303
sVliz@luntz.com
p287
I304
sVsteven.j.kean@enron.com
p288
I305
sVjohn.j.boudreaux@us.arthurandersen.com
p289
I307
sVbob.gates@enron.com
p290
I308
sVsusan.j.mara@enron.com
p291
I309
sVdiomedes.christodoulou@enron.com
p292
I310
sVcmrsteeringcommittee@caiso.com
p293
I311
sVjmball@ns.net
p294
I312
sVmike.smith@enron.com
p295
I313
sVshirley.hudler@enron.com
p296
I314
sVpatrick.conner@enron.com
p297
I315
sVhwiegmann@wc.com
p298
I316
sVdeclaris@mindspring.com
p299
I317
sVjody.baker@bnpparibas.com
p300
I511
sVrakesh.bharati@enron.com
p301
I319
sVfrank.ermis@enron.com
p302
I439
sVjohn.brindle@enron.com
p303
I323
sVmark.metts@enron.com
p304
I324
sVnick.o'day@enron.com
p305
I325
sVtim.belden@enron.com
p306
I326
sVkcurry@bracepatt.com
p307
I328
sVdon.powell@enron.com
p308
I329
sVhcameron@uclink.berkeley.edu
p309
I1199
sVzalaywan@caiso.com
p310
I331
sVhthomas@gspcorp.com
p311
I332
sVrosalinda.tijerina@enron.com
p312
I1112
sVfrank.derosa@gen.pge.com
p313
I1084
sVsteve.young@enron.com
p314
I960
sVrichard.causey@enron.com
p315
I334
sVbarry.tycholiz@enron.com
p316
I335
sVchris.hendrix@enron.com
p317
I490
sVfreesrj@apci.com
p318
I337
sVrskoebbe@powerworksinc.com
p319
I338
sVdnelsen@gwfpower.com
p320
I798
sVasheffrin@caiso.com
p321
I339
sVharold.buchanan@enron.com
p322
I976
sVmarket_participant_mn2@calpx.com
p323
I340
sVrod.hayslett@enron.com
p324
I698
sVcarrrn@bracepatt.com
p325
I491
sVjoe.sutton@enron.com
p326
I343
sVfrazier_blaylock@ogden-energy.com
p327
I344
sVchris.holmes@enron.com
p328
I492
sVcraig.taylor@enron.com
p329
I40
sVsmccorkle@caiso.com
p330
I348
sVlhernandez@luce.com
p331
I349
sVleone@scmv.com
p332
I350
sVmeredith.philipp@enron.com
p333
I351
sVandrew.morrison@enron.com
p334
I910
sVccameron@caiso.com
p335
I353
sVwolak@zia.stanford.edu
p336
I354
sVcgates@caiso.com
p337
I1115
sVgtbl@dynegy.com
p338
I355
sVsally.beck@enron.com
p339
I356
sVjaime.alatorre@enron.com
p340
I1206
sVjmyan@stanford.edu
p341
I358
sVnknight@riskwaters.com
p342
I359
sVmargaret.carson@enron.com
p343
I936
sVmarket_participant_cd2@calpx.com
p344
I360
sVa..hope@enron.com
p345
I361
sVscott.healy@enron.com
p346
I362
sVwgramm@osf1.gmu.edu
p347
I767
sVlinda.wehring@enron.com
p348
I103
sVcindy.skinner@enron.com
p349
I872
sVbwoertz@caiso.com
p350
I366
sVstuart.staley@enron.com
p351
I885
sVkevin.hyatt@enron.com
p352
I214
sVmmilner@coral-energy.com
p353
I368
sVvicki.sharp@enron.com
p354
I369
sVdavid.roland@enron.com
p355
I370
sVbrenda.barreda@enron.com
p356
I371
sVsteve.herman@neg.pge.com
p357
I372
sVdarren@gwbush.com
p358
I373
sVstephen.herber@enron.com
p359
I374
sVmarcus.nettelton@enron.com
p360
I376
sVjohn.redding@gene.ge.com
p361
I378
sVjonathan.whitehead@enron.com
p362
I379
sVmillerl@dsmo.com
p363
I380
sVlegal <.schuler@enron.com>
p364
I381
sVsharon.purswell@enron.com
p365
I382
sVchristie.patrick@enron.com
p366
I383
sVw..vickers@enron.com
p367
I267
sVfsayre@enron.com
p368
I918
sVhwendell@mdbe.com
p369
I386
sVkaren.barbour@enron.com
p370
I387
sVwgramm@aol.com
p371
I389
sVghalling@smrh.com
p372
I919
sVhlhunt@georgewbush.com
p373
I1221
sVralph@censtrat.com
p374
I393
sVscott.neal@enron.com
p375
I394
sVmmoretti@mccabeandcompany.net
p376
I396
sVjohn.vickers@us.arthurandersen.com
p377
I397
sVdbutswinkas@wc.com
p378
I398
sVjennifer.costa@neg.pge.com
p379
I400
sVwbooth@booth-law.com
p380
I401
sVfmdutton@aep.com
p381
I402
sVrex.shelby@enron.com
p382
I404
sVjareding@phjw.com
p383
I405
sVpaul.thomas@enron.com
p384
I406
sVkurt.lindahl@enron.com
p385
I1228
sVmichael.brown@enron.com
p386
I994
sVtbibb@caiso.com
p387
I409
sVmrothleder@caiso.com
p388
I411
sVdaniel.allegretti@enron.com
p389
I412
sVmarket_participant_eg1@calpx.com
p390
I413
sVtony.spruiell@enron.com
p391
I716
sVkit.blair@enron.com
p392
I1007
sVjdilg@velaw.com
p393
I692
sVtara.rozen@enron.com
p394
I417
sVashouse@velaw.com
p395
I163
sVjim.fallon@enron.com
p396
I419
sVsusan.lindberg@enron.com
p397
I420
sVgangelidis@caiso.com
p398
I1201
sValexp@eccointl.com
p399
I422
sVoutlook.team@enron.com
p400
I1155
sVtrusso@mcnallytemple.com
p401
I423
sVrreilley@coral-energy.com
p402
I424
sVgemanix@aol.com
p403
I425
sVvasant.shanbhogue@enron.com
p404
I10
sVrwhyde@duke-energy.com
p405
I427
sVn.baker@enron.com
p406
I428
sVjtbrooks@luce.com
p407
I429
sVpanton@algorithmics.com
p408
I430
sVe-mail <.ron@enron.com>
p409
I216
sVdonald.lassere@enron.com
p410
I1000
sVbrad.holmes@enron.com
p411
I433
sVmarc.phillips@enron.com
p412
I377
sVchip.schneider@enron.com
p413
I435
sVkenneth.lay@enron.com
p414
I436
sVbryan.gottredson@enron.com
p415
I438
sVjan.king@enron.com
p416
I702
sVrick.dietz@enron.com
p417
I440
sVmarty_mcfadden@ogden-energy.com
p418
I1130
sVelizabeth.sager@enron.com
p419
I441
sVdon.black@enron.com
p420
I442
sVrick.buy@enron.com
p421
I714
sVjane.tholt@enron.com
p422
I14
sVpaula.hall-collins@williams.com
p423
I1131
sVafrahimi@nilou.com
p424
I447
sVsteve.montovano@enron.com
p425
I448
sVjames.saunders@enron.com
p426
I327
sVlouise.kitchen@enron.com
p427
I450
sVjulie.miller@sce.com
p428
I451
sVsteve_ponder@fpl.com
p429
I1133
sVe..haedicke@enron.com
p430
I453
sVp..o'neil@enron.com
p431
I454
sVmcvicker@enron.com
p432
I455
sVmark.whitt@enron.com
p433
I1262
sVsherri.sera@enron.com
p434
I458
sVjacqueline.coleman@enron.com
p435
I104
sVrlevin@nymex.com
p436
I460
sVcharles.zdebski@troutmansanders.com
p437
I461
sVdebinorton@aol.com
p438
I1134
sVemoses@mayor.lacity.org
p439
I463
sVpx_marketing_services@calpx.com
p440
I464
sVnelson.neale@enron.com
p441
I465
sVmichael.kenneally@enron.com
p442
I466
sVlisa.mellencamp@enron.com
p443
I467
sVsydne_michel@la.kirkland.com
p444
I696
sVlance.schuler-legal@enron.com
p445
I468
sVdjohns@caiso.com
p446
I1261
sVmsmith1@enron.com
p447
I471
sVbill.williams@enron.com
p448
I1177
sVdave.martinez@enron.com
p449
I473
sVschuler@rice.edu
p450
I201
sVgary.fitch@enron.com
p451
I206
sVjon.thomsen@enron.com
p452
I209
sVamitava.dhar@enron.com
p453
I477
sVnarsimha.misra@enron.com
p454
I395
sVeric.newell@enron.com
p455
I242
sVjwahl@cinergy.com
p456
I480
sVrobert.neustaedter@enron.com
p457
I1137
sVjaime.williams@enron.com
p458
I482
sVeosterberg@velaw.com
p459
I483
sVkathryn.schultea@enron.com
p460
I288
sVernie.kohnke@dynegy.com
p461
I485
sVmarket_participant_or1@calpx.com
p462
I1197
sVmmattes@nossaman.com
p463
I933
sVbmerryman@whitecase.com
p464
I487
sVkam.keiser@enron.com
p465
I320
sVntraweek@caiso.com
p466
I489
sVeric.letke@enron.com
p467
I336
sVbob.hall@enron.com
p468
I133
sVjo.hill@enron.com
p469
I346
sVscott.gahn@enron.com
p470
I833
sVjane.wilson@enron.com
p471
I493
sVbbloom@velaw.com
p472
I494
sVrichard.ingersoll@enron.com
p473
I495
sVrtreinen@caiso.com
p474
I497
sVwest.ga@enron.com
p475
I1248
sVjoseph.hirl@enron.com
p476
I399
sVerik.bliss@lw.com
p477
I499
sVeronn@mail.utexas.edu
p478
I500
sVlauren.iannarone@enron.com
p479
I182
sVlaura.schwartz@enron.com
p480
I502
sVbarry.calder@ualberta.ca
p481
I892
sVjones@mailman.enron.com
p482
I504
sVmarty.sunde@enron.com
p483
I505
sVtim.underdown@enron.com
p484
I510
sVrichard.amabile@enron.com
p485
I507
sVmmcgown@velaw.com
p486
I508
sVj..noske@enron.com
p487
I519
sVrobert.jones@enron.com
p488
I146
sVerrol.mclaughlin@enron.com
p489
I1156
sVwes.colwell@enron.com
p490
I476
sVroger.sumlin@enron.com
p491
I392
sVduffie@stanford.edu
p492
I514
sVw..cantrell@enron.com
p493
I1164
sVsanjay.bhatnagar@enron.com
p494
I515
sVkaplan@iepa.com
p495
I516
sVjoe.gold@enron.com
p496
I517
sVdennis.vegas@enron.com
p497
I518
sVjames.wright@enron.com
p498
I1255
sVdroark@velaw.com
p499
I506
sVphillip.allen@enron.com
p500
I509
sVeileen.kisluk@enron.com
p501
I521
sVdennis.benevides@enron.com
p502
I1146
sVann.schmidt@enron.com
p503
I523
sVfoothi19@idt.net
p504
I726
sVrobert_zoellick@gmfus.org
p505
I525
sVstephen.wallace@enron.com
p506
I526
sVgwendolyn.petteway@enron.com
p507
I528
sVdsalter@hgp-inc.com
p508
I573
sVsusan.ralph@enron.com
p509
I727
sVmdjoseph@adamsbroadwell.com
p510
I531
sVeileenk@calpine.com
p511
I532
sVkevin.hughes@enron.com
p512
I533
sVstephanie-newell@reliantenergy.com
p513
I1113
sVamy.lee@enron.com
p514
I536
sVelizabeth.tilney@enron.com
p515
I537
sVechapin@chapinlaw.com
p516
I538
sVjklauber@llgm.com
p517
I539
sVbarton.clark@enron.com
p518
I540
sVthane.twiggs@enron.com
p519
I541
sVpeggy.mahoney@enron.com
p520
I729
sVbrenda.herod@enron.com
p521
I1072
sVmcmahon@scmv.com
p522
I1150
sVjulia.white@enron.com
p523
I544
sVstelzer@aol.com
p524
I545
sVhap_boyd@enron.com
p525
I546
sVw..delainey@enron.com
p526
I547
sVamy@epis.com
p527
I297
sVjason.sokolov@enron.com
p528
I549
sVtriley@enron.com
p529
I595
sVlora.sullivan@enron.com
p530
I551
sVsteve.hall@enron.com
p531
I552
sVeric.boyt@enron.com
p532
I553
sVjbennett@gmssr.com
p533
I554
sVwilliam.e.@enron.com
p534
I555
sVevan.hughes@enron.com
p535
I556
sVcharlene.jackson@enron.com
p536
I218
sVpete@calwind.com
p537
I488
sVmegan.beiser@edelman.com
p538
I560
sVmlk@pkns.com
p539
I1153
sVshrirams@hotmail.com
p540
I253
sVmday@gmssr.com
p541
I740
sVkurt.huneke@enron.com
p542
I563
sVdean.nistetter@dynegy.com
p543
I1136
sVchris.stokley@enron.com
p544
I1127
sVrobtaylor@andrews-kurth.com
p545
I8
sVjoseph.alamo@enron.com
p546
I565
sVjohn.arnold@enron.com
p547
I416
sVchris.mahoney@enron.com
p548
I567
sVpeter.styles@enron.com
p549
I569
sVjennifer.rudolph@enron.com
p550
I570
sVbfpjv@c-zone.net
p551
I236
sValfredo.huertas@enron.com
p552
I1239
sVc..hall@enron.com
p553
I948
sVjean.ryall@enron.com
p554
I575
sVrobbrnglsn@aol.com
p555
I576
sVbruno.gaillard@enron.com
p556
I577
sVchristina.liscano@enron.com
p557
I578
sVa..hueter@enron.com
p558
I513
sVlarry.deroin@enron.com
p559
I580
sVmflorio@turn.org
p560
I581
sVkeith.stepp@enron.com
p561
I582
sVken_lay@enron.net
p562
I877
sVriccardo.bortolotti@enron.com
p563
I585
sVwanda.curry@enron.com
p564
I586
sVrobert.williams@enron.com
p565
I587
sVdavid.gorte@enron.com
p566
I588
sVdezickson@mwe.com
p567
I589
sVrita.hartfield@enron.com
p568
I590
sVplombardo@plantsystems.com
p569
I592
sVpinnamaneni.krishnarao@enron.com
p570
I593
sVcindy.stark@enron.com
p571
I594
sVkim.melodick@enron.com
p572
I886
sVdfulton@enron.com
p573
I1196
sVcharles.yeung@enron.com
p574
I596
sVursula.brenner@enron.com
p575
I306
sVedgillespie@quinngillespie.com
p576
I743
sVsanford.hartman@neg.pge.com
p577
I1161
sVkalen.pieper@enron.com
p578
I264
sVmarket_participant_or2@calpx.com
p579
I601
sVjeremy.blachman@enron.com
p580
I603
sVsandi.braband@enron.com
p581
I12
sVpaul.dawson@enron.com
p582
I605
sVhershberger@scmv.com
p583
I606
sVdsgeorge@firstworld.net
p584
I607
sVlawrencelrtnmt@aol.com
p585
I13
sVdebra.hicks@enron.com
p586
I437
sVcatherine.mckalip-thompson@enron.com
p587
I610
sVb..sanders@enron.com
p588
I1163
sVted.murphy@enron.com
p589
I746
sVvbyrd@velaw.com
p590
I612
sVsteve.swain@enron.com
p591
I613
sVjeffrey.keeler@enron.com
p592
I614
sVerin.rice@enron.com
p593
I615
sVjoel.mack@lw.com
p594
I616
sVroy.poyntz@enron.com
p595
I617
sVleslie.lawner@enron.com
p596
I1174
sVasettanni@bracepatt.com
p597
I618
sVsandeep.katwala@ei.enron.com
p598
I619
sVblundst@ei.enron.com
p599
I620
sVbritt.davis@enron.com
p600
I621
sVlondon.brown@enron.com
p601
I294
sVmark.e.haedicke@enron.com
p602
I623
sVjnovak@ei.enron.com
p603
I611
sVcynthia.sandherr@enron.com
p604
I625
sVroger.yang@enron.com
p605
I626
sVtamara.hopkins@enron.com
p606
I627
sVtcortopassi@ogden-energy.com
p607
I628
sVkevin_a_howard.enronxgate.enron@enron.net
p608
I629
sVpges@dynegy.com
p609
I631
sVeric.moon@enron.com
p610
I632
sVvkamins@enron.com
p611
I633
sVdtribble@pillsburywinthrop.com
p612
I634
sVeisenstatl@dsmo.com
p613
I1152
sVe-mail <'.'dan@enron.com>
p614
I1219
sVgsasser@velaw.com
p615
I1128
sVmika.watanabe@enron.com
p616
I407
sValex.sugaoka@uaecorp.com
p617
I1087
sVdoornbos@socrates.berkeley.edu
p618
I710
sVvanessa.schulte@enron.com
p619
I637
sVapickens@gibbs-bruns.com
p620
I639
sVkevin.garland@enron.com
p621
I640
sVsteven.january@enron.com
p622
I641
sVjennifer.thome@enron.com
p623
I642
sVk..allen@enron.com
p624
I643
sVrobert.edwards@troutmansanders.com
p625
I644
sVdanny.mccarty@enron.com
p626
I462
sVa..martin@enron.com
p627
I0
sVzack.starbird@mirant.com
p628
I647
sVmatthew.berry@enron.com
p629
I648
sVangela.schwarz@enron.com
p630
I649
sVdana.davis@enron.com
p631
I650
sVdavid.oxley@enron.com
p632
I651
sVeric.gonzales@enron.com
p633
I652
sVshackleton@mailman.enron.com
p634
I653
sVjlgreene@energyadvocates.com
p635
I654
sVeric.eisenman@gen.pge.com
p636
I846
sVdave.schafer@enron.com
p637
I656
sVa..roberts@enron.com
p638
I657
sVray.alvarez@enron.com
p639
I659
sVdwatkiss@bracepatt.com
p640
I661
sVa..shankman@enron.com
p641
I662
sVlorraine.lindberg@enron.com
p642
I665
sVkgjaffe@swidlaw.com
p643
I666
sVmstultz@epsa.org
p644
I667
sVcarole.hodge@enron.com
p645
I668
sVnora_kean@duchesne.org
p646
I669
sVdonald.black@enron.com
p647
I167
sVterri_l_ponce_de_leon@calpx.com
p648
I174
sVkathy.dodgen@enron.com
p649
I178
sVakim@m-g.com
p650
I180
sVdebora.whitehead@enron.com
p651
I675
sVgfoster@antigenics.com
p652
I676
sVanita.dupont@enron.com
p653
I677
sVmarket_participant_kl2@calpx.com
p654
I204
sVvkaminski@aol.com
p655
I512
sVcrobinson@caiso.com
p656
I679
sVstephanie.miller@enron.com
p657
I579
sVnancy.bagot@enron.com
p658
I681
sVmichelle.cisneros@enron.com
p659
I241
sVedward.hamb@enron.com
p660
I683
sVpaul.trieschman@enron.com
p661
I684
sVrebecca.mcdonald@enron.com
p662
I685
sVlisa.connolly@enron.com
p663
I686
sVandrew.lewis@enron.com
p664
I142
sVamr.ibrahim@enron.com
p665
I967
sVjane.m.tholt@enron.com
p666
I689
sVjennifer.medcalf@enron.com
p667
I690
sVesmeralda.hinojosa@enron.com
p668
I691
sVjames.hughes@enron.com
p669
I318
sVcvarner@smrh.com
p670
I693
sVsheri.thomas@enron.com
p671
I694
sVjoe.gordon@enron.com
p672
I56
sVlamar.frazier@enron.com
p673
I347
sVdavid.haug@enron.com
p674
I341
sVtom.may@enron.com
p675
I345
sVjames.steffes@enron.com
p676
I1170
sVdcastro@pkns.com
p677
I1023
sVkeith.miceli@enron.com
p678
I701
sVknorton@mcnallytemple.com
p679
I1192
sVarem@electric.com
p680
I703
sVharry.kingerski@enron.com
p681
I704
sVeric.thode@enron.com
p682
I112
sVmartha.janousek@enron.com
p683
I706
sVted.bland@enron.com
p684
I469
sVpaffairs2@hoover.stanford.edu
p685
I708
sVneil.bresnan@enron.com
p686
I709
sVlloyd.will@enron.com
p687
I390
sVkevinscott@onlinemailbox.net
p688
I687
sVhlhunt@gwbush.com
p689
I1037
sVeydie.corneiro@enron.com
p690
I713
sVsteve.walker@enron.com
p691
I212
sVurszula@pacbell.net
p692
I1179
sVpaugustini@cera.com
p693
I717
sVgriffith@mailman.enron.com
p694
I718
sVkaminski@enron.com
p695
I923
sVfallonr@dsmo.com
p696
I719
sVmwillis@caiso.com
p697
I558
sVshari.stack@enron.com
p698
I721
sVa..howard@enron.com
p699
I722
sVlga@mother.com
p700
I403
sVmichael.hicks@enron.com
p701
I559
sVneil.hong@enron.com
p702
I725
sVphilippe.bibi@enron.com
p703
I524
sVsharon.butcher@enron.com
p704
I535
sVttaylor@smrh.com
p705
I728
sVgayle.muench@enron.com
p706
I542
sVjeff.lam@bchydro.bc.ca
p707
I295
sVjames.studdert@enron.com
p708
I550
sVsnovose@enron.com
p709
I196
sVmartin.lin@enron.com
p710
I736
sVlindy.donoho@enron.com
p711
I737
sVppitts@wiredworld1.com
p712
I738
sVray.alvarez@ei.enron.com
p713
I739
sVjill.zivley@enron.com
p714
I1263
sVmichael.burke@enron.com
p715
I321
sVlarry.decker@enron.com
p716
I741
sVelizabeth.linnell@enron.com
p717
I742
sVsheila.nacey@enron.com
p718
I598
sVmkass@pillsburywinthrop.com
p719
I745
sVjames.steffew@enron.com
p720
I562
sVpaul.kaufman@enron.com
p721
I747
sVbarbara.hueter@enron.com
p722
I748
sVteresa.bosien@enron.com
p723
I749
sVjanet.butler@enron.com
p724
I750
sVderek.naten@roche.com
p725
I751
sVleslie.reeves@enron.com
p726
I752
sVwbalson@crai.com
p727
I753
sVsreyno@state.wy.us
p728
I734
sVsteve.leppard@enron.com
p729
I755
sVmichael.mann@enron.com
p730
I756
sVgeoff.storey@enron.com
p731
I534
sVlinda.robertson@enron.com
p732
I758
sVmike-jines@reliantenergy.com
p733
I759
sVmitchell.taylor@enron.com
p734
I283
sVjdasovic@enron.com
p735
I761
sVjmunoz@velaw.com
p736
I699
sVt..hodge@enron.com
p737
I763
sVsandra.mccubbin@enron.com
p738
I764
sVkatrina.burton@enron.com
p739
I765
sVdorothy.youngblood@enron.com
p740
I766
sVrick.bergsieker@enron.com
p741
I982
sVjanel.guerrero@enron.com
p742
I363
sVjubran.whalan@enron.com
p743
I768
sVholcombb@dsmo.com
p744
I724
sVjoe.hirko@enron.com
p745
I770
sVjeffery.fawcett@enron.com
p746
I771
sVlight-kelly@reliantenergy.com
p747
I772
sVseabron.adamson@frontier-economics.com
p748
I773
sValex.goldberg@williams.com
p749
I774
sVstephanie.truss@enron.com
p750
I775
sVwscobee@caithnessenergy.com
p751
I777
sVrobert.hill@enron.com
p752
I1189
sVamosher@appanet.org
p753
I778
sVtim.despain@enron.com
p754
I779
sVdavid.leboe@enron.com
p755
I780
sVgfergus@brobeck.com
p756
I1114
sVsean.holmes@enron.com
p757
I446
sVmhamer@graycary.com
p758
I782
sVstanley.cocke@enron.com
p759
I783
sVdavid_burns@reliantenergy.com
p760
I784
sVkelly.johnson@enron.com
p761
I785
sVdan.leff@enron.com
p762
I1214
sVmhaine@enron.com
p763
I470
sVsteve.c.hall@enron.com
p764
I498
sVsandi_j._thompson@calpx.com
p765
I789
sVjennifer.scafe@lw.com
p766
I790
sVbilly.lemmons@enron.com
p767
I791
sVbarry.pearce@enron.com
p768
I792
sVmark.schroeder@enron.com
p769
I793
sVstanley_horton@enron.com
p770
I794
sVleasa.lopez@enron.com
p771
I795
sVaaron.brown@enron.com
p772
I796
sVstacy.guidroz@enron.com
p773
I797
sVallison.hamilton@enron.com
p774
I591
sVrcarroll@bracepatt.com
p775
I799
sVsteven.leppard@enron.com
p776
I800
sVlnettles@velaw.com
p777
I566
sVdouglas.condon@enron.com
p778
I802
sVelyse.kalmans@enron.com
p779
I803
sVsara.shackleton@enron.com
p780
I609
sVpat.shortridge@enron.com
p781
I805
sVmarek.musiela@bnpparibas.com
p782
I806
sVsuzy.l.rodriguez@dynegy.com
p783
I989
sVadp3@pge.com
p784
I807
sVelizabeth.labanowski@enron.com
p785
I584
sVj.metts@enron.com
p786
I809
sVkent.palmerton@williams.com
p787
I810
sVtim.heizenrader@enron.com
p788
I811
sVeileen.buerkert@enron.com
p789
I391
sVtanya.murphy@neg.pge.com
p790
I813
sVbhansen@lhom.com
p791
I814
sVjguzman@nossaman.com
p792
I815
sVgeorge.wasaff@enron.com
p793
I816
sVmichelle.cash@enron.com
p794
I817
sVlee.ferrell@enron.com
p795
I367
sVjeannie.mandelker@enron.com
p796
I819
sVtwetzel@thermoecotek.com
p797
I1212
sVvkasarjian@caiso.com
p798
I1195
sV20participants@caiso.com
p799
I821
sVe-mail <.gary@enron.com>
p800
I990
sVlynn.a.lednicky@dynegy.com
p801
I823
sVwgang@enron.com
p802
I415
sVchris.foster@enron.com
p803
I571
sVmmolland@brobeck.com
p804
I496
sVhoyt.thomas@enron.com
p805
I786
sVcra@calretailers.com
p806
I828
sVbeth.apollo@enron.com
p807
I781
sVgcopeland@bakerbotts.com
p808
I830
sVnate.ellis@enron.com
p809
I831
sVmbockie@caiso.com
p810
I832
sVjean.mrha@enron.com
p811
I107
sVa..hughes@enron.com
p812
I834
sVflong@caiso.com
p813
I835
sVlchurch@epsa.org
p814
I836
sVmarcia.linton@enron.com
p815
I443
sVmercy.gil@enron.com
p816
I838
sVerica.manuel@edelman.com
p817
I992
sVjeffery.ader@enron.com
p818
I530
sVpmeringolo@brobeck.com
p819
I840
sVaudrey.robertson@enron.com
p820
I1200
sVstephen.burns@enron.com
p821
I924
sVthixson@mdbe.com
p822
I841
sVrobert.c.williams@enron.com
p823
I842
sVcullen.duke@enron.com
p824
I844
sVstacy.walker@enron.com
p825
I845
sVjvidal@riskwaters.com
p826
I22
sVmcmannes@aol.com
p827
I1121
sVfran.deltoro@enron.com
p828
I847
sVmike.swerzbin@enron.com
p829
I848
sVccastillo@riobravo-gm.com
p830
I849
sVjoe.connor@enron.com
p831
I850
sVcingebretson@bracepatt.com
p832
I851
sVsteven@iepa.com
p833
I602
sVray.bennett@enron.com
p834
I854
sVkaren_y_koyano@calpx.com
p835
I720
sVnigel.sellens@enron.com
p836
I855
sVmike.roan@enron.com
p837
I856
sVsadlersa@earthlink.net
p838
I996
sValeck.dadson@enron.com
p839
I217
sVjackp@calpine.com
p840
I859
sVrcrane@sto.id.us
p841
I860
sVlkristov@caiso.com
p842
I19
sVno.address@enron.com
p843
I776
sVpr <.palmer@enron.com>
p844
I853
sVtheresa.connor-smith@enron.com
p845
I385
sVcmrcoreteam@caiso.com
p846
I864
sVlysa.akin@enron.com
p847
I865
sVjames.beh@troutmansanders.com
p848
I457
sVkathleen.sullivan@enron.com
p849
I72
sVabb@eslawfirm.com
p850
I733
sVmarchris.robinson@enron.com
p851
I191
sVdeborah.defforge@enron.com
p852
I870
sVtradeline@netzero.net
p853
I871
sVdouglas.huth@enron.com
p854
I754
sVcharles.e.cheek@enron.com
p855
I875
sVsusan.landwehr@enron.com
p856
I1001
sVtheresa.branney@enron.com
p857
I787
sVjoer@calpine.com
p858
I879
sVdwimberly@caiso.com
p859
I880
sVkate.agnew@us.arthurandersen.com
p860
I788
sVmtuohey@velaw.com
p861
I882
sVkmagrude@enron.com
p862
I883
sVfiluntz@aol.com
p863
I884
sVcraigc@calpine.com
p864
I712
sVmichael.grimescorpenron@enron.com
p865
I711
sVnam.nguyen@powersrc.com
p866
I888
sVsgovenar@govadv.com
p867
I889
sVnplotkin@tfglobby.com
p868
I757
sVmpalmer@enron.com
p869
I861
sVjmiller@caiso.com
p870
I893
sVpmackin@caiso.com
p871
I894
sVkriste.sullivan@enron.com
p872
I895
sVmona.petrochko@enron.com
p873
I1267
sVjoannie.williamson@enron.com
p874
I1210
sVvladimir.gorny@enron.com
p875
I896
sVjimmie.williams@enron.com
p876
I858
sVbrbarkovich@earthlink.net
p877
I762
sVchristoph.waltenspuel@enron.com
p878
I899
sVcmrexecutivepolicyteam@caiso.com
p879
I900
sVsheila.tweed@enron.com
p880
I921
sVfrahimi@caiso.com
p881
I902
sVjanette.elbertson@enron.com
p882
I903
sVtodd.burke@enron.com
p883
I904
sVfernley.doug@epenergy.com
p884
I1198
sVlipsen@cisco.com
p885
I1213
sVmark.elliott@enron.com
p886
I905
sVpenny.mccarran@enron.com
p887
I322
sVdg27@pacbell.net
p888
I1118
sVjanelle.scheuer@enron.com
p889
I330
sVjohn.llodra@enron.com
p890
I909
sVviacheslav.danilov@enron.com
p891
I352
sVmhain@iso-ne.com
p892
I93
sVcindy.derecskey@enron.com
p893
I912
sVlavorato@enron.com
p894
I913
sVstephen.plauche@enron.com
p895
I914
sVpaula.rieker@enron.com
p896
I915
sVtakashi.kimura@enron.com
p897
I917
sVwbalson@opt4.com
p898
I384
sVcrcommunications@caiso.com
p899
I357
sVmatt.harris@enron.com
p900
I920
sVeriley@caiso.com
p901
I881
sVsean.bolks@enron.com
p902
I922
sVkate@powerbrokersllc.com
p903
I414
sVlale@dynegy.com
p904
I520
sVmsottosanti@smrh.com
p905
I431
sVbrian.redmond@enron.com
p906
I926
sVjfrizzell@gibbs-bruns.com
p907
I927
sVdiane.goode@enron.com
p908
I928
sVsbigalow@email.msn.com
p909
I929
sVleslie.hansen@enron.com
p910
I80
sVthomas.martin@enron.com
p911
I932
sVg..moore@enron.com
p912
I486
sVmichael.bodnar@enron.com
p913
I664
sVjeff.richter@enron.com
p914
I935
sVmacknemd@sce.com
p915
I930
sVtkinnear@luce.com
p916
I503
sVkkelley@caiso.com
p917
I937
sVmatthew.scrimshaw@enron.com
p918
I938
sVdavid.baumbach@enron.com
p919
I287
sVsmara@enron.com
p920
I705
sVnnissen@mdbe.com
p921
I941
sVarmando.calvo@elpaso.com
p922
I942
sVbrad.nebergall@enron.com
p923
I898
sVrika.imai@enron.com
p924
I944
sVdonna.scott@enron.com
p925
I548
sVvance.meyer@enron.com
p926
I946
sVjeffrey_davidson@la.kirkland.com
p927
I947
sVmike.mcconnell@enron.com
p928
I574
sVchris.dorland@enron.com
p929
I949
sVdana.jones@enron.com
p930
I950
sVjohan.zaayman@enron.com
p931
I951
sVe-mail <'.'gary@enron.com>
p932
I952
sVtom.bauer@us.arthurandersen.com
p933
I410
sVolivier.herbelot@enron.com
p934
I954
sVkevin.presto@enron.com
p935
I955
sVstanley.horton@enron.com
p936
I418
sVscott.chavez@sen.ca.gov
p937
I956
sVamy.fitzpatrick@enron.com
p938
I957
sVc..williams@enron.com
p939
I958
sVdjray@engr.wisc.edu
p940
I636
sVfmisseldine@caithnessenergy.com
p941
I1016
sVandre.cangucu@enron.com
p942
I804
sVwade.cline@enron.com
p943
I962
sVdan.staines@enron.com
p944
I963
sVkarasinski@enron.com
p945
I1069
sVmark.taylor@enron.com
p946
I964
sVkaren.moore@enron.com
p947
I1017
sVjeffrey.gossett@enron.com
p948
I688
sVgary.mirich@enron.com
p949
I968
sVkatja.schilling@enron.com
p950
I969
sVjoe.richards@enron.com
p951
I597
sVscott.harris@nrgenergy.com
p952
I364
sVourternrbb@aol.com
p953
I971
sVjulia.murray@enron.com
p954
I972
sVbeverly.aden@enron.com
p955
I878
sVed@buckham.com
p956
I408
sVdonna.fulton@enron.com
p957
I1125
sVeberlin@swidlaw.com
p958
I975
sVjeff.donahue@enron.com
p959
I568
sVann.cohn@sce.com
p960
I572
sVscott.stoness@enron.com
p961
I934
sVrobert.mason@enron.com
p962
I979
sVnorm.spalding@enron.com
p963
I980
sVgramlr@pjm.com
p964
I981
sVdee.madole@enron.com
p965
I977
sVkfluckiger@caiso.com
p966
I983
sVstig.faltinsen@enron.com
p967
I984
sVtravis.mccullough@enron.com
p968
I985
sVacomnes@enron.com
p969
I986
sVrichard.shapiro@enron.com
p970
I987
sVjoseph.sutton@enron.com
p971
I818
sVcfr@vnf.com
p972
I822
sVsharon.dick@enron.com
p973
I991
sVdean_gosselin@fpl.com
p974
I600
sVcarol.moffett@enron.com
p975
I993
sVjvaughn@luce.com
p976
I869
sVpaula.warren@enron.com
p977
I995
sVtbelden@enron.com
p978
I857
sVshelley.corman@enron.com
p979
I997
sVshirley.crenshaw@enron.com
p980
I998
sVblh@pkns.com
p981
I999
sVjacton@crai.com
p982
I939
sVkathryn.corbally@enron.com
p983
I808
sVpete_m_schenkkan@reliantenergy.com
p984
I890
sVjoe.greco@uaecorp.com
p985
I1225
sVm..taylor@enron.com
p986
I1003
sVpaul.chivers@enron.com
p987
I1004
sVetoolson@hesinet.com
p988
I37
sVjordan.mintz@enron.com
p989
I1006
sVdavidtaylorsf@aol.com
p990
I1008
sVe-mail <'.'jan@enron.com>
p991
I1009
sVjohn.ambler@enron.com
p992
I1010
sVandy.black@mail.house.gov
p993
I1011
sVs..shively@enron.com
p994
I226
sVdarrell.schoolcraft@enron.com
p995
I1013
sViris.waser@enron.com
p996
I1014
sVjulie@lacimagroup.com
p997
I1015
sVvernon.mercaldo@enron.com
p998
I801
sVnelson.ferries@enron.com
p999
I812
sVteece@haas.berkeley.edu
p1000
I604
sVmichael.rosen@enron.com
p1001
I1018
sVcraig.sutter@enron.com
p1002
I1019
sVrichard.sanders@enron.com
p1003
I1020
sVgallen@bakerbotts.com
p1004
I1226
sVlynn.blair@enron.com
p1005
I527
sVmartin.mcdermott@enron.com
p1006
I184
sVtim.muller@williams.com
p1007
I1024
sVshawna.johnson@enron.com
p1008
I1025
sVeschmid@caiso.com
p1009
I1027
sVios_participants@ypo.org
p1010
I1026
sVrmcmanus@bakerbotts.com
p1011
I1028
sVoffley@hoover.stanford.edu
p1012
I1029
sVrachel.king@elpaso.com
p1013
I1030
sVgeorgeanne.hodges@enron.com
p1014
I1002
sVricardo.charvel@enron.com
p1015
I1032
sVlisa.yoho@enron.com
p1016
I1033
sVcabaker@duke-energy.com
p1017
I1034
sVtross@mcnallytemple.com
p1018
I1005
sVageller@velaw.com
p1019
I1035
sVjeff.messina@enron.com
p1020
I1036
sVtana.jones@enron.com
p1021
I852
sVjmcintosh@caiso.com
p1022
I1038
sVbellery@spi-ind.com
p1023
I608
sVjanet.dietrich@enron.com
p1024
I1040
sVanna.mehrer@enron.com
p1025
I1041
sVmarcus.dotson@enron.com
p1026
I1042
sVmark.haedicke@enron.com
p1027
I1043
sVindia.torres@enron.com
p1028
I735
sVmichael.bridges@enron.com
p1029
I1058
sVstephen.horn@enron.com
p1030
I1045
sVbill.votaw@enron.com
p1031
I1145
sVmichaellewanco@worldnet.att.net
p1032
I1046
sVjeffrey.miller@enron.com
p1033
I1047
sVmark.lay@enron.com
p1034
I906
sVjshohet@graycary.com
p1035
I1070
sVsuzanne_nimocks@mckinsey.com
p1036
I1049
sVhugh.davenport@mirant.com
p1037
I1237
sVsiliff@riobravo-gm.com
p1038
I1031
sVrosalee.fleming@enron.com
p1039
I1051
sVkerry.stroup@enron.com
p1040
I1052
sVgwyn.koepke@enron.com
p1041
I695
sVrtemple@mcnallytemple.com
p1042
I1054
sVandrew.h.lewis@enron.com
p1043
I1056
sVdavid.parquet@enron.com
p1044
I891
sVstephanie.segura@enron.com
p1045
I1057
sVjdasovic@ees.enron.com
p1046
I897
sVsteve.duffy@enron.com
p1047
I1229
sVsteve.weller@enron.com
p1048
I459
sVdcasse@whwg.com
p1049
I1060
sVmarkus.fiala@enron.com
p1050
I1061
sVm..driscoll@enron.com
p1051
I2
sVmark.bernstein@enron.com
p1052
I6
sVpatrick.tucker@enron.com
p1053
I1064
sVmike.grigsby@enron.com
p1054
I873
sVdolores.fisher@enron.com
p1055
I1065
sVjdne@dynegy.com
p1056
I1066
sVbrady.edwards@bakerbotts.com
p1057
I824
sVawalia@enron.com
p1058
I1068
sVsandra.zala@enron.com
p1059
I660
sVsbarber@velaw.com
p1060
I219
sVbestorg@dsmo.com
p1061
I1071
sVtwu@caiso.com
p1062
I825
sVmartha.stevens@enron.com
p1063
I887
sVken@kdscommunications.com
p1064
I1073
sVjalexander@gibbs-bruns.com
p1065
I87
sVfoothill@lmi.net
p1066
I1075
sVfrank.vickers@enron.com
p1067
I96
sVrichard.lewis@enron.com
p1068
I1077
sVnelly.carpenter@enron.com
p1069
I109
sVrichard.miles@ferc.fed.us
p1070
I1079
sVrichardson@copn.com
p1071
I655
sVmarket_participant_uz1@calpx.com
p1072
I1081
sVe..sommers@enron.com
p1073
I1082
sVmargaret.allen@enron.com
p1074
I1083
sVjoe.hillings@enron.com
p1075
I529
sVjeffrey.mcmahon@enron.com
p1076
I164
sVstacey.bolton@enron.com
p1077
I874
sVdouglass@arterhadden.com
p1078
I176
sVcynthia.barrow@enron.com
p1079
I179
sVvincek@leland.stanford.edu
p1080
I181
sVmelissa.laing@enron.com
p1081
I1090
sVjsturgeon@whitecase.com
p1082
I197
sVcte@eslawfirm.com
p1083
I1092
sVandrew.fastow@enron.com
p1084
I1093
sVbeth.perlman@enron.com
p1085
I1094
sVrobert.eickenroht@enron.com
p1086
I221
sVsue.nord@enron.com
p1087
I1039
sVdbenevid@enron.com
p1088
I1097
sVjuneann.sauntry@troutmansanders.com
p1089
I1098
sVmark.muller@enron.com
p1090
I1099
sVmax.eberts@enron.com
p1091
I1100
sVkim.bolton@enron.com
p1092
I1101
sVt..zivley@enron.com
p1093
I1102
sVtspanos@morganlewis.com
p1094
I1103
sVgavin.dillingham@enron.com
p1095
I1104
sVtomas.valnek@enron.com
p1096
I268
sVsarah.novosel@enron.com
p1097
I1106
sVj.kaminski@enron.com
p1098
I829
sVtim.richards@corporate.ge.com
p1099
I1108
sVmichael.roan@enron.com
p1100
I1109
sVcindy.olson@enron.com
p1101
I1110
sVjohn_h_stout@reliantenergy.com
p1102
I1111
sVrjszymanski@powerworksinc.com
p1103
I333
sVchristi.nicolay@enron.com
p1104
I622
sVpiotr.karasinski@ssmb.com
p1105
I342
sVroger.ondreko@enron.com
p1106
I700
sVbob.perez@elpaso.com
p1107
I1116
sVnancy.hetrick@enron.com
p1108
I1117
sVmary.joyce@enron.com
p1109
I35
sVmichael.stage@enron.com
p1110
I365
sVtori.kuykendall@enron.com
p1111
I663
sVmichael.tribolet@enron.com
p1112
I624
sVdpickett@mdbe.com
p1113
I1123
sVkean@rice.edu
p1114
I1119
sVscottkuehn@go2netmail.com
p1115
I1124
sVgina.corteselli@enron.com
p1116
I1044
sVm..schmidt@enron.com
p1117
I1126
sVjohn.sherriff@enron.com
p1118
I426
sVandrea.settanni@enron.com
p1119
I1021
sVron.bertasi@enron.com
p1120
I1129
sVeugenio.perez@enron.com
p1121
I1122
sVvjw@cleanpower.org
p1122
I445
sVeric.gadd@enron.com
p1123
I1132
sVkelly.kimberly@enron.com
p1124
I452
sVjohn_presley@enron.net
p1125
I456
sVborenste@haas.berkeley.edu
p1126
I1135
sVdale.surbey@enron.com
p1127
I658
sVj..kean@enron.com
p1128
I202
sVjames.d.steffes@enron.com
p1129
I1138
sVlegal <.hall@enron.com>
p1130
I1139
sVmark.frevert@enron.com
p1131
I1140
sVpeter.goebel@enron.com
p1132
I1141
sVlance.cunningham@enron.com
p1133
I1142
sVkimberly.watson@enron.com
p1134
I1143
sVjohn.nowlan@enron.com
p1135
I1144
sVdrogers2@ei.enron.com
p1136
I965
sVdlpits@yahoo.com
p1137
I522
sVbrian.stanley@enron.com
p1138
I1147
sVlou.pai@enron.com
p1139
I907
sVjames.bannantine@enron.com
p1140
I1149
sVjay.reitmeyer@enron.com
p1141
I839
sVandy.rodriquez@enron.com
p1142
I1151
sVmike.dahlke@enron.com
p1143
I707
sVrshapiro@enron.com
p1144
I561
sVmike.bryant@enron.com
p1145
I1154
sVhellertj@apci.com
p1146
I769
sVarsystem@mailman.enron.com
p1147
I1157
sVnels.olson@kornferry.com
p1148
I1158
sVstella.chan@enron.com
p1149
I959
sVmark.pickering@enron.com
p1150
I1159
sVruth.concannon@enron.com
p1151
I472
sVtkennedy@mdbe.com
p1152
I599
sVjmunoz@mcnallytemple.com
p1153
I826
sVrob.wilson@enron.com
p1154
I1162
sVdrew.lynch@enron.com
p1155
I931
sVm..tholt@enron.com
p1156
I1120
sVawenner@velaw.com
p1157
I1165
sVenrique.velasco@elpaso.com
p1158
I1166
sVpreilly@velaw.com
p1159
I1167
sVgpeters@epsa.org
p1160
I911
sVjeffrey.hodge@enron.com
p1161
I635
sV'black@enron.com
p1162
I1169
sVmatthew.lenhart@enron.com
p1163
I543
sVjkarp@whitecase.com
p1164
I1059
sVmwilson@pstrategies.com
p1165
I1171
sVmarylou.peters@msdw.com
p1166
I1050
sVkarlgallan@aol.com
p1167
I1172
sVelaine.overturf@enron.com
p1168
I1173
sVbrandon.rigney@enron.com
p1169
I432
sVmike.ullom@enron.com
p1170
I978
sVricardo.perez@enron.com
p1171
I1175
sVjoe.hartsoe@enron.com
p1172
I973
sVerdmann.garth@enron.com
p1173
I966
sVmolly.carnes@enron.com
p1174
I1178
sVemy.geraldo@enron.com
p1175
I11
sVj_martin@baylor.edu
p1176
I1180
sVmaureen.raymond@enron.com
p1177
I1181
sVsimon.brooks@enron.com
p1178
I1182
sVdrew.fossum@enron.com
p1179
I1257
sVtom.hoatson@enron.com
p1180
I1183
sVdsalvosa@epsa.org
p1181
I1160
sVban.sharma@enron.com
p1182
I1184
sVwilliams@mailman.enron.com
p1183
I1185
sVdfergus@brobeck.com
p1184
I1186
sVrodney.faldyn@enron.com
p1185
I1187
sVjennifer.stewart@enron.com
p1186
I1188
sVtom.dutta@enron.com
p1187
I638
sVrkean@starband.net
p1188
I1190
sVkenneth_lay@enron.net
p1189
I862
sVdph@swbell.net
p1190
I876
sVdana.gibbs@enron.com
p1191
I1193
sVsarah-joy.hunter@enron.com
p1192
I1194
sVkvellandi@pstrategies.com
p1193
I1254
sVbbailey@duke-energy.com
p1194
I820
sVkgough@calpine.com
p1195
I1191
sVleticia.botello@enron.com
p1196
I715
sVrobert.badeer@enron.com
p1197
I263
sVjames.lewis@enron.com
p1198
I837
sVrobin.kittel@enron.com
p1199
I564
sVcraig.buehler@enron.com
p1200
I224
sVcurtis_l_kebler@reliantenergy.com
p1201
I1202
sVleonardo.pacheco@enron.com
p1202
I1203
sVdvhawk@aol.com
p1203
I1168
sVfgiffels@hgp-inc.com
p1204
I1204
sVe-mail <.pat@enron.com>
p1205
I557
sVmary.schoen@enron.com
p1206
I285
sVeklavya.sareen@enron.com
p1207
I1207
sVtcwillia@duke-energy.com
p1208
I1208
sVvince.j.kaminski@enron.com
p1209
I1209
sVtracy.fairchild@edelman.com
p1210
I501
sVaruna_inalsingh@reval.com
p1211
I1211
sVdmbutz@butzdunn.com
p1212
I901
sVpgarris@caiso.com
p1213
I961
sVmeredith.eggleston@enron.com
p1214
I27
sVfelecia.acevedo@enron.com
p1215
I1215
sVcharlotte@wptf.org
p1216
I1216
sVterrie.james@enron.com
p1217
I1217
sVlegalonline-compliance@enron.com
p1218
I1218
sVrob.bradley@enron.com
p1219
I945
sVjohn.thompson@enron.com
p1220
I1260
sVzlazic@caiso.com
p1221
I940
sVcmpallenik@duke-energy.com
p1222
I1148
sVbob.burleson@enron.com
p1223
I974
sVandrew.edison@enron.com
p1224
I1222
sVjack.hawks@gen.pge.com
p1225
I1223
sVsraber@wc.com
p1226
I1224
sVrmcnally@mcnallytemple.com
p1227
I434
sVdeborah.fiorito@dynegy.com
p1228
I1048
sVjeff.skilling@enron.com
p1229
I697
sVpaul.broderick@enron.com
p1230
I1227
sVphillip.love@enron.com
p1231
I670
sVkaminski@mailman.enron.com
p1232
I630
sVwilliam_carlson@wastemanagement.com
p1233
I1230
sVenergy.vertical@juno.com
p1234
I1231
sVbwillia5@enron.com
p1235
I1232
sVjtiffany@pillsburywinthrop.com
p1236
I1233
sVccooney@enron.com
p1237
I1234
sVdale.clark@enron.com
p1238
I863
sVginger_b_gamble@reliantenergy.com
p1239
I730
sVlcottle@whitecase.com
p1240
I1236
sVluiz.maurer@enron.com
p1241
I1086
sVkaren.heathman@enron.com
p1242
I1238
sVrebecca.carter@enron.com
p1243
I916
sVbrent.price@enron.com
p1244
I1240
sVgeorge.wood@enron.com
p1245
I1241
sVgail.brownfeld@enron.com
p1246
I1266
sVsbishop@gibbs-bruns.com
p1247
I1243
sVgreg.wolfe@enron.com
p1248
I1244
sVpamela.lesh@enron.com
p1249
I1245
sVbill.mangels@enron.com
p1250
I1246
sVjohn.metzler@enron.com
p1251
I421
sVbill.donovan@enron.com
p1252
I1247
sVruss.severson@enron.com
p1253
I1249
sVgackerman@wptf.org
p1254
I1250
sVdave.perrino@enron.com
p1255
I1251
sVwhederman@columbiaenergygroup.com
p1256
I1252
sVjmpa@dynegy.com
p1257
I1253
sVlysa.tracy@enron.com
p1258
I988
sVpilar.ramirez@enron.com
p1259
I145
sVkaren.denne@enron.com
p1260
I1256
sVlori.maddox@enron.com
p1261
I953
sVmarcie.milner@enron.com
p1262
I1258
sVbrenda_worley@ypo.org
p1263
I1259
sVdjn@pkns.com
p1264
I227
sVtwanda.sweet@enron.com
p1265
I925
sVkathy.bass@enron.com
p1266
I760
sVgreg.whalley@enron.com
p1267
I1265
sVbellard@caiso.com
p1268
I1242
sVtom.briggs@enron.com
p1269
I645
sVekrapels@esaibos.com
p1270
I1268
s.